target datalayout = "e-m:e-p270:32:32-p271:32:32-p272:64:64-i64:64-i128:128-f80:128-n8:16:32:64-S128"
target triple = "x86_64-pc-linux-gnu"

%struct.archive_string = type { ptr, i64, i64 }
%struct.mtree_writer = type { ptr, ptr, ptr, %struct.archive_string, %struct.mtree_chain, %struct.archive_string, %struct.archive_string, i32, i64, %struct.anon, %struct.att_counter_set, i32, i32, i32, i32, i64, ptr, ptr, ptr, ptr, ptr, ptr, i32, i32, i32, i32 }
%struct.mtree_chain = type { ptr, ptr }
%struct.anon = type { i32, i32, i32, i64, i64, i32, i64, i64 }
%struct.att_counter_set = type { ptr, ptr, ptr, ptr }

@.str.76 = private unnamed_addr constant [4 x i8] c" \\\0A\00", align 1

; Function Attrs: nounwind uwtable
define internal void @mtree_indent(ptr noundef %0) #0 {
  %2 = alloca ptr, align 8
  %3 = alloca i32, align 4
  %4 = alloca i32, align 4
  %5 = alloca i32, align 4
  %6 = alloca i32, align 4
  %7 = alloca ptr, align 8
  %8 = alloca ptr, align 8
  %9 = alloca ptr, align 8
  store ptr %0, ptr %2, align 8, !tbaa !23
  call void @llvm.lifetime.start.p0(i64 4, ptr %3) #9
  call void @llvm.lifetime.start.p0(i64 4, ptr %4) #9
  call void @llvm.lifetime.start.p0(i64 4, ptr %5) #9
  call void @llvm.lifetime.start.p0(i64 4, ptr %6) #9
  call void @llvm.lifetime.start.p0(i64 8, ptr %7) #9
  call void @llvm.lifetime.start.p0(i64 8, ptr %8) #9
  call void @llvm.lifetime.start.p0(i64 8, ptr %9) #9
  %10 = load ptr, ptr %2, align 8, !tbaa !23
  %11 = getelementptr inbounds nuw %struct.mtree_writer, ptr %10, i32 0, i32 11
  %12 = load i32, ptr %11, align 8, !tbaa !53
  %13 = icmp ne i32 %12, 0
  br i1 %13, label %14, label %31

14:                                               ; preds = %1
  %15 = load ptr, ptr %2, align 8, !tbaa !23
  %16 = getelementptr inbounds nuw %struct.mtree_writer, ptr %15, i32 0, i32 24
  %17 = load i32, ptr %16, align 8, !tbaa !37
  %18 = icmp ne i32 %17, 0
  br i1 %18, label %19, label %24

19:                                               ; preds = %14
  store i32 0, ptr %5, align 4, !tbaa !13
  %20 = load ptr, ptr %2, align 8, !tbaa !23
  %21 = getelementptr inbounds nuw %struct.mtree_writer, ptr %20, i32 0, i32 12
  %22 = load i32, ptr %21, align 4, !tbaa !144
  %23 = mul nsw i32 %22, 4
  store i32 %23, ptr %6, align 4, !tbaa !13
  br label %30

24:                                               ; preds = %14
  %25 = load ptr, ptr %2, align 8, !tbaa !23
  %26 = getelementptr inbounds nuw %struct.mtree_writer, ptr %25, i32 0, i32 12
  %27 = load i32, ptr %26, align 4, !tbaa !144
  %28 = icmp ne i32 %27, 0
  %29 = select i1 %28, i32 4, i32 0
  store i32 %29, ptr %5, align 4, !tbaa !13
  store i32 0, ptr %6, align 4, !tbaa !13
  br label %30

30:                                               ; preds = %24, %19
  br label %32

31:                                               ; preds = %1
  store i32 0, ptr %6, align 4, !tbaa !13
  store i32 0, ptr %5, align 4, !tbaa !13
  br label %32

32:                                               ; preds = %31, %30
  store i32 1, ptr %4, align 4, !tbaa !13
  %33 = load ptr, ptr %2, align 8, !tbaa !23
  %34 = getelementptr inbounds nuw %struct.mtree_writer, ptr %33, i32 0, i32 5
  %35 = getelementptr inbounds nuw %struct.archive_string, ptr %34, i32 0, i32 0
  %36 = load ptr, ptr %35, align 8, !tbaa !38
  store ptr %36, ptr %7, align 8, !tbaa !9
  store ptr %36, ptr %8, align 8, !tbaa !9
  store ptr null, ptr %9, align 8, !tbaa !9
  br label %37

37:                                               ; preds = %42, %32
  %38 = load ptr, ptr %7, align 8, !tbaa !9
  %39 = load i8, ptr %38, align 1, !tbaa !57
  %40 = sext i8 %39 to i32
  %41 = icmp eq i32 %40, 32
  br i1 %41, label %42, label %45

42:                                               ; preds = %37
  %43 = load ptr, ptr %7, align 8, !tbaa !9
  %44 = getelementptr inbounds nuw i8, ptr %43, i32 1
  store ptr %44, ptr %7, align 8, !tbaa !9
  br label %37, !llvm.loop !178

45:                                               ; preds = %37
  br label %46

46:                                               ; preds = %173, %124, %45
  %47 = load ptr, ptr %7, align 8, !tbaa !9
  %48 = call ptr @strchr(ptr noundef %47, i32 noundef 32) #11
  store ptr %48, ptr %7, align 8, !tbaa !9
  %49 = icmp ne ptr %48, null
  br i1 %49, label %50, label %174

50:                                               ; preds = %46
  %51 = load i32, ptr %4, align 4, !tbaa !13
  %52 = icmp ne i32 %51, 0
  br i1 %52, label %53, label %127

53:                                               ; preds = %50
  store i32 0, ptr %4, align 4, !tbaa !13
  store i32 0, ptr %3, align 4, !tbaa !13
  br label %54

54:                                               ; preds = %64, %53
  %55 = load i32, ptr %3, align 4, !tbaa !13
  %56 = load i32, ptr %5, align 4, !tbaa !13
  %57 = load i32, ptr %6, align 4, !tbaa !13
  %58 = add nsw i32 %56, %57
  %59 = icmp slt i32 %55, %58
  br i1 %59, label %60, label %67

60:                                               ; preds = %54
  %61 = load ptr, ptr %2, align 8, !tbaa !23
  %62 = getelementptr inbounds nuw %struct.mtree_writer, ptr %61, i32 0, i32 6
  %63 = call ptr @archive_strappend_char(ptr noundef %62, i8 noundef signext 32)
  br label %64

64:                                               ; preds = %60
  %65 = load i32, ptr %3, align 4, !tbaa !13
  %66 = add nsw i32 %65, 1
  store i32 %66, ptr %3, align 4, !tbaa !13
  br label %54, !llvm.loop !179

67:                                               ; preds = %54
  %68 = load ptr, ptr %2, align 8, !tbaa !23
  %69 = getelementptr inbounds nuw %struct.mtree_writer, ptr %68, i32 0, i32 6
  %70 = load ptr, ptr %8, align 8, !tbaa !9
  %71 = load ptr, ptr %7, align 8, !tbaa !9
  %72 = load ptr, ptr %8, align 8, !tbaa !9
  %73 = ptrtoint ptr %71 to i64
  %74 = ptrtoint ptr %72 to i64
  %75 = sub i64 %73, %74
  %76 = call ptr @archive_strncat(ptr noundef %69, ptr noundef %70, i64 noundef %75)
  %77 = load i32, ptr %5, align 4, !tbaa !13
  %78 = sext i32 %77 to i64
  %79 = load ptr, ptr %7, align 8, !tbaa !9
  %80 = load ptr, ptr %8, align 8, !tbaa !9
  %81 = ptrtoint ptr %79 to i64
  %82 = ptrtoint ptr %80 to i64
  %83 = sub i64 %81, %82
  %84 = add nsw i64 %78, %83
  %85 = icmp sgt i64 %84, 15
  br i1 %85, label %86, label %103

86:                                               ; preds = %67
  %87 = load ptr, ptr %2, align 8, !tbaa !23
  %88 = getelementptr inbounds nuw %struct.mtree_writer, ptr %87, i32 0, i32 6
  %89 = call ptr @archive_strncat(ptr noundef %88, ptr noundef @.str.76, i64 noundef 3)
  store i32 0, ptr %3, align 4, !tbaa !13
  br label %90

90:                                               ; preds = %99, %86
  %91 = load i32, ptr %3, align 4, !tbaa !13
  %92 = load i32, ptr %6, align 4, !tbaa !13
  %93 = add nsw i32 16, %92
  %94 = icmp slt i32 %91, %93
  br i1 %94, label %95, label %102

95:                                               ; preds = %90
  %96 = load ptr, ptr %2, align 8, !tbaa !23
  %97 = getelementptr inbounds nuw %struct.mtree_writer, ptr %96, i32 0, i32 6
  %98 = call ptr @archive_strappend_char(ptr noundef %97, i8 noundef signext 32)
  br label %99

99:                                               ; preds = %95
  %100 = load i32, ptr %3, align 4, !tbaa !13
  %101 = add nsw i32 %100, 1
  store i32 %101, ptr %3, align 4, !tbaa !13
  br label %90, !llvm.loop !180

102:                                              ; preds = %90
  br label %124

103:                                              ; preds = %67
  %104 = load ptr, ptr %7, align 8, !tbaa !9
  %105 = load ptr, ptr %8, align 8, !tbaa !9
  %106 = ptrtoint ptr %104 to i64
  %107 = ptrtoint ptr %105 to i64
  %108 = sub i64 %106, %107
  %109 = load i32, ptr %5, align 4, !tbaa !13
  %110 = sext i32 %109 to i64
  %111 = add nsw i64 %108, %110
  %112 = trunc i64 %111 to i32
  store i32 %112, ptr %3, align 4, !tbaa !13
  br label %113

113:                                              ; preds = %120, %103
  %114 = load i32, ptr %3, align 4, !tbaa !13
  %115 = icmp slt i32 %114, 16
  br i1 %115, label %116, label %123

116:                                              ; preds = %113
  %117 = load ptr, ptr %2, align 8, !tbaa !23
  %118 = getelementptr inbounds nuw %struct.mtree_writer, ptr %117, i32 0, i32 6
  %119 = call ptr @archive_strappend_char(ptr noundef %118, i8 noundef signext 32)
  br label %120

120:                                              ; preds = %116
  %121 = load i32, ptr %3, align 4, !tbaa !13
  %122 = add nsw i32 %121, 1
  store i32 %122, ptr %3, align 4, !tbaa !13
  br label %113, !llvm.loop !181

123:                                              ; preds = %113
  br label %124

124:                                              ; preds = %123, %102
  %125 = load ptr, ptr %7, align 8, !tbaa !9
  %126 = getelementptr inbounds nuw i8, ptr %125, i32 1
  store ptr %126, ptr %7, align 8, !tbaa !9
  store ptr %126, ptr %8, align 8, !tbaa !9
  store ptr null, ptr %9, align 8, !tbaa !9
  br label %46, !llvm.loop !182

127:                                              ; preds = %50
  %128 = load i32, ptr %6, align 4, !tbaa !13
  %129 = sext i32 %128 to i64
  %130 = load ptr, ptr %7, align 8, !tbaa !9
  %131 = load ptr, ptr %8, align 8, !tbaa !9
  %132 = ptrtoint ptr %130 to i64
  %133 = ptrtoint ptr %131 to i64
  %134 = sub i64 %132, %133
  %135 = add nsw i64 %129, %134
  %136 = icmp sle i64 %135, 62
  br i1 %136, label %137, label %140

137:                                              ; preds = %127
  %138 = load ptr, ptr %7, align 8, !tbaa !9
  %139 = getelementptr inbounds nuw i8, ptr %138, i32 1
  store ptr %139, ptr %7, align 8, !tbaa !9
  store ptr %138, ptr %9, align 8, !tbaa !9
  br label %173

140:                                              ; preds = %127
  %141 = load ptr, ptr %9, align 8, !tbaa !9
  %142 = icmp eq ptr %141, null
  br i1 %142, label %143, label %145

143:                                              ; preds = %140
  %144 = load ptr, ptr %7, align 8, !tbaa !9
  store ptr %144, ptr %9, align 8, !tbaa !9
  br label %145

145:                                              ; preds = %143, %140
  %146 = load ptr, ptr %2, align 8, !tbaa !23
  %147 = getelementptr inbounds nuw %struct.mtree_writer, ptr %146, i32 0, i32 6
  %148 = load ptr, ptr %8, align 8, !tbaa !9
  %149 = load ptr, ptr %9, align 8, !tbaa !9
  %150 = load ptr, ptr %8, align 8, !tbaa !9
  %151 = ptrtoint ptr %149 to i64
  %152 = ptrtoint ptr %150 to i64
  %153 = sub i64 %151, %152
  %154 = call ptr @archive_strncat(ptr noundef %147, ptr noundef %148, i64 noundef %153)
  %155 = load ptr, ptr %2, align 8, !tbaa !23
  %156 = getelementptr inbounds nuw %struct.mtree_writer, ptr %155, i32 0, i32 6
  %157 = call ptr @archive_strncat(ptr noundef %156, ptr noundef @.str.76, i64 noundef 3)
  store i32 0, ptr %3, align 4, !tbaa !13
  br label %158

158:                                              ; preds = %167, %145
  %159 = load i32, ptr %3, align 4, !tbaa !13
  %160 = load i32, ptr %6, align 4, !tbaa !13
  %161 = add nsw i32 16, %160
  %162 = icmp slt i32 %159, %161
  br i1 %162, label %163, label %170

163:                                              ; preds = %158
  %164 = load ptr, ptr %2, align 8, !tbaa !23
  %165 = getelementptr inbounds nuw %struct.mtree_writer, ptr %164, i32 0, i32 6
  %166 = call ptr @archive_strappend_char(ptr noundef %165, i8 noundef signext 32)
  br label %167

167:                                              ; preds = %163
  %168 = load i32, ptr %3, align 4, !tbaa !13
  %169 = add nsw i32 %168, 1
  store i32 %169, ptr %3, align 4, !tbaa !13
  br label %158, !llvm.loop !183

170:                                              ; preds = %158
  %171 = load ptr, ptr %9, align 8, !tbaa !9
  %172 = getelementptr inbounds nuw i8, ptr %171, i32 1
  store ptr %172, ptr %9, align 8, !tbaa !9
  store ptr %172, ptr %7, align 8, !tbaa !9
  store ptr %172, ptr %8, align 8, !tbaa !9
  store ptr null, ptr %9, align 8, !tbaa !9
  br label %173

173:                                              ; preds = %170, %137
  br label %46, !llvm.loop !182

174:                                              ; preds = %46
  %175 = load i32, ptr %4, align 4, !tbaa !13
  %176 = icmp ne i32 %175, 0
  br i1 %176, label %177, label %200

177:                                              ; preds = %174
  store i32 0, ptr %3, align 4, !tbaa !13
  br label %178

178:                                              ; preds = %188, %177
  %179 = load i32, ptr %3, align 4, !tbaa !13
  %180 = load i32, ptr %5, align 4, !tbaa !13
  %181 = load i32, ptr %6, align 4, !tbaa !13
  %182 = add nsw i32 %180, %181
  %183 = icmp slt i32 %179, %182
  br i1 %183, label %184, label %191

184:                                              ; preds = %178
  %185 = load ptr, ptr %2, align 8, !tbaa !23
  %186 = getelementptr inbounds nuw %struct.mtree_writer, ptr %185, i32 0, i32 6
  %187 = call ptr @archive_strappend_char(ptr noundef %186, i8 noundef signext 32)
  br label %188

188:                                              ; preds = %184
  %189 = load i32, ptr %3, align 4, !tbaa !13
  %190 = add nsw i32 %189, 1
  store i32 %190, ptr %3, align 4, !tbaa !13
  br label %178, !llvm.loop !184

191:                                              ; preds = %178
  %192 = load ptr, ptr %2, align 8, !tbaa !23
  %193 = getelementptr inbounds nuw %struct.mtree_writer, ptr %192, i32 0, i32 6
  %194 = load ptr, ptr %8, align 8, !tbaa !9
  %195 = call ptr @archive_strcat(ptr noundef %193, ptr noundef %194)
  %196 = load ptr, ptr %8, align 8, !tbaa !9
  %197 = call i64 @strlen(ptr noundef %196) #11
  %198 = load ptr, ptr %8, align 8, !tbaa !9
  %199 = getelementptr inbounds nuw i8, ptr %198, i64 %197
  store ptr %199, ptr %8, align 8, !tbaa !9
  br label %200

200:                                              ; preds = %191, %174
  %201 = load ptr, ptr %9, align 8, !tbaa !9
  %202 = icmp ne ptr %201, null
  br i1 %202, label %203, label %238

203:                                              ; preds = %200
  %204 = load i32, ptr %6, align 4, !tbaa !13
  %205 = sext i32 %204 to i64
  %206 = load ptr, ptr %8, align 8, !tbaa !9
  %207 = call i64 @strlen(ptr noundef %206) #11
  %208 = add i64 %205, %207
  %209 = icmp ugt i64 %208, 62
  br i1 %209, label %210, label %238

210:                                              ; preds = %203
  %211 = load ptr, ptr %2, align 8, !tbaa !23
  %212 = getelementptr inbounds nuw %struct.mtree_writer, ptr %211, i32 0, i32 6
  %213 = load ptr, ptr %8, align 8, !tbaa !9
  %214 = load ptr, ptr %9, align 8, !tbaa !9
  %215 = load ptr, ptr %8, align 8, !tbaa !9
  %216 = ptrtoint ptr %214 to i64
  %217 = ptrtoint ptr %215 to i64
  %218 = sub i64 %216, %217
  %219 = call ptr @archive_strncat(ptr noundef %212, ptr noundef %213, i64 noundef %218)
  %220 = load ptr, ptr %2, align 8, !tbaa !23
  %221 = getelementptr inbounds nuw %struct.mtree_writer, ptr %220, i32 0, i32 6
  %222 = call ptr @archive_strncat(ptr noundef %221, ptr noundef @.str.76, i64 noundef 3)
  store i32 0, ptr %3, align 4, !tbaa !13
  br label %223

223:                                              ; preds = %232, %210
  %224 = load i32, ptr %3, align 4, !tbaa !13
  %225 = load i32, ptr %6, align 4, !tbaa !13
  %226 = add nsw i32 16, %225
  %227 = icmp slt i32 %224, %226
  br i1 %227, label %228, label %235

228:                                              ; preds = %223
  %229 = load ptr, ptr %2, align 8, !tbaa !23
  %230 = getelementptr inbounds nuw %struct.mtree_writer, ptr %229, i32 0, i32 6
  %231 = call ptr @archive_strappend_char(ptr noundef %230, i8 noundef signext 32)
  br label %232

232:                                              ; preds = %228
  %233 = load i32, ptr %3, align 4, !tbaa !13
  %234 = add nsw i32 %233, 1
  store i32 %234, ptr %3, align 4, !tbaa !13
  br label %223, !llvm.loop !185

235:                                              ; preds = %223
  %236 = load ptr, ptr %9, align 8, !tbaa !9
  %237 = getelementptr inbounds nuw i8, ptr %236, i32 1
  store ptr %237, ptr %9, align 8, !tbaa !9
  store ptr %237, ptr %8, align 8, !tbaa !9
  br label %238

238:                                              ; preds = %235, %203, %200
  %239 = load ptr, ptr %2, align 8, !tbaa !23
  %240 = getelementptr inbounds nuw %struct.mtree_writer, ptr %239, i32 0, i32 6
  %241 = load ptr, ptr %8, align 8, !tbaa !9
  %242 = call ptr @archive_strcat(ptr noundef %240, ptr noundef %241)
  %243 = load ptr, ptr %2, align 8, !tbaa !23
  %244 = getelementptr inbounds nuw %struct.mtree_writer, ptr %243, i32 0, i32 5
  %245 = getelementptr inbounds nuw %struct.archive_string, ptr %244, i32 0, i32 1
  store i64 0, ptr %245, align 8, !tbaa !39
  call void @llvm.lifetime.end.p0(i64 8, ptr %9) #9
  call void @llvm.lifetime.end.p0(i64 8, ptr %8) #9
  call void @llvm.lifetime.end.p0(i64 8, ptr %7) #9
  call void @llvm.lifetime.end.p0(i64 4, ptr %6) #9
  call void @llvm.lifetime.end.p0(i64 4, ptr %5) #9
  call void @llvm.lifetime.end.p0(i64 4, ptr %4) #9
  call void @llvm.lifetime.end.p0(i64 4, ptr %3) #9
  ret void
}