; Function Attrs: nounwind uwtable
define internal fastcc void @mtree_indent(ptr noundef %0) unnamed_addr #0 {
  %2 = getelementptr inbounds nuw i8, ptr %0, i64 216
  %3 = load i32, ptr %2, align 8, !tbaa !37
  %.not = icmp eq i32 %3, 0
  br i1 %.not, label %13, label %4

4:                                                ; preds = %1
  %5 = getelementptr inbounds nuw i8, ptr %0, i64 296
  %6 = load i32, ptr %5, align 8, !tbaa !55
  %.not89 = icmp eq i32 %6, 0
  %7 = getelementptr inbounds nuw i8, ptr %0, i64 220
  %8 = load i32, ptr %7, align 4, !tbaa !119
  br i1 %.not89, label %11, label %9

9:                                                ; preds = %4
  %10 = shl nsw i32 %8, 2
  br label %13

11:                                               ; preds = %4
  %.not90 = icmp eq i32 %8, 0
  %12 = select i1 %.not90, i32 0, i32 4
  br label %13

13:                                               ; preds = %1, %9, %11
  %.081 = phi i32 [ 0, %9 ], [ %12, %11 ], [ 0, %1 ]
  %.080 = phi i32 [ %10, %9 ], [ 0, %11 ], [ 0, %1 ]
  %14 = getelementptr inbounds nuw i8, ptr %0, i64 64
  %15 = load ptr, ptr %14, align 8, !tbaa !167
  br label %16

16:                                               ; preds = %16, %13
  %.077 = phi ptr [ %15, %13 ], [ %19, %16 ]
  %17 = load i8, ptr %.077, align 1, !tbaa !53
  %18 = icmp eq i8 %17, 32
  %19 = getelementptr inbounds nuw i8, ptr %.077, i64 1
  br i1 %18, label %16, label %.preheader97, !llvm.loop !168

.preheader97:                                     ; preds = %16
  %20 = tail call ptr @strchr(ptr noundef nonnull dereferenceable(1) %.077, i32 noundef 32) #16
  %.not91109.not = icmp eq ptr %20, null
  %21 = add i32 %.080, %.081
  %22 = icmp sgt i32 %21, 0
  br i1 %.not91109.not, label %.preheader, label %.lr.ph113

.lr.ph113:                                        ; preds = %.preheader97
  %23 = getelementptr inbounds nuw i8, ptr %0, i64 88
  %24 = zext nneg i32 %.081 to i64
  %25 = icmp sgt i32 %.080, -16
  %26 = sext i32 %.080 to i64
  %27 = add i32 %.080, 15
  %smax = tail call i32 @llvm.smax.i32(i32 %27, i32 0)
  br label %28

28:                                               ; preds = %.lr.ph113, %.backedge
  %29 = phi ptr [ %20, %.lr.ph113 ], [ %49, %.backedge ]
  %.0112 = phi ptr [ null, %.lr.ph113 ], [ %.0.be, %.backedge ]
  %.074111 = phi ptr [ %15, %.lr.ph113 ], [ %.074.be, %.backedge ]
  %.not92110 = phi i1 [ false, %.lr.ph113 ], [ true, %.backedge ]
  br i1 %.not92110, label %50, label %.preheader96

.preheader96:                                     ; preds = %28
  br i1 %22, label %.lr.ph, label %._crit_edge

.lr.ph:                                           ; preds = %.preheader96, %.lr.ph
  %.08398 = phi i32 [ %31, %.lr.ph ], [ 0, %.preheader96 ]
  %30 = tail call ptr @archive_strappend_char(ptr noundef nonnull %23, i8 noundef signext 32) #14
  %31 = add nuw nsw i32 %.08398, 1
  %exitcond.not = icmp eq i32 %31, %21
  br i1 %exitcond.not, label %._crit_edge, label %.lr.ph, !llvm.loop !169

._crit_edge:                                      ; preds = %.lr.ph, %.preheader96
  %32 = ptrtoint ptr %29 to i64
  %33 = ptrtoint ptr %.074111 to i64
  %34 = sub i64 %32, %33
  %35 = tail call ptr @archive_strncat(ptr noundef nonnull %23, ptr noundef %.074111, i64 noundef %34) #14
  %36 = add nsw i64 %34, %24
  %37 = icmp sgt i64 %36, 15
  br i1 %37, label %38, label %42

38:                                               ; preds = %._crit_edge
  %39 = tail call ptr @archive_strncat(ptr noundef nonnull %23, ptr noundef nonnull @.str.76, i64 noundef 3) #14
  br i1 %25, label %.lr.ph104, label %.loopexit

.lr.ph104:                                        ; preds = %38, %.lr.ph104
  %.184102 = phi i32 [ %41, %.lr.ph104 ], [ 0, %38 ]
  %40 = tail call ptr @archive_strappend_char(ptr noundef nonnull %23, i8 noundef signext 32) #14
  %41 = add nuw i32 %.184102, 1
  %exitcond125.not = icmp eq i32 %.184102, %smax
  br i1 %exitcond125.not, label %.loopexit, label %.lr.ph104, !llvm.loop !170

42:                                               ; preds = %._crit_edge
  %43 = trunc i64 %36 to i32
  %44 = icmp slt i32 %43, 16
  br i1 %44, label %.lr.ph101, label %.loopexit

.lr.ph101:                                        ; preds = %42, %.lr.ph101
  %.28599 = phi i32 [ %46, %.lr.ph101 ], [ %43, %42 ]
  %45 = tail call ptr @archive_strappend_char(ptr noundef nonnull %23, i8 noundef signext 32) #14
  %46 = add nsw i32 %.28599, 1
  %47 = icmp slt i32 %.28599, 15
  br i1 %47, label %.lr.ph101, label %.loopexit, !llvm.loop !171

.loopexit:                                        ; preds = %.lr.ph101, %.lr.ph104, %42, %38
  %48 = getelementptr inbounds nuw i8, ptr %29, i64 1
  br label %.backedge

.backedge:                                        ; preds = %56, %._crit_edge108, %.loopexit
  %.178.be = phi ptr [ %48, %.loopexit ], [ %57, %56 ], [ %66, %._crit_edge108 ]
  %.074.be = phi ptr [ %48, %.loopexit ], [ %.074111, %56 ], [ %66, %._crit_edge108 ]
  %.0.be = phi ptr [ null, %.loopexit ], [ %29, %56 ], [ null, %._crit_edge108 ]
  %49 = tail call ptr @strchr(ptr noundef nonnull dereferenceable(1) %.178.be, i32 noundef 32) #16
  %.not91 = icmp eq ptr %49, null
  br i1 %.not91, label %._crit_edge114, label %28, !llvm.loop !172

50:                                               ; preds = %28
  %51 = ptrtoint ptr %29 to i64
  %52 = ptrtoint ptr %.074111 to i64
  %53 = sub i64 %26, %52
  %54 = add i64 %53, %51
  %55 = icmp slt i64 %54, 63
  br i1 %55, label %56, label %58

56:                                               ; preds = %50
  %57 = getelementptr inbounds nuw i8, ptr %29, i64 1
  br label %.backedge

58:                                               ; preds = %50
  %59 = icmp eq ptr %.0112, null
  %spec.select = select i1 %59, ptr %29, ptr %.0112
  %60 = ptrtoint ptr %spec.select to i64
  %61 = sub i64 %60, %52
  %62 = tail call ptr @archive_strncat(ptr noundef nonnull %23, ptr noundef %.074111, i64 noundef %61) #14
  %63 = tail call ptr @archive_strncat(ptr noundef nonnull %23, ptr noundef nonnull @.str.76, i64 noundef 3) #14
  br i1 %25, label %.lr.ph107, label %._crit_edge108

.lr.ph107:                                        ; preds = %58, %.lr.ph107
  %.386105 = phi i32 [ %65, %.lr.ph107 ], [ 0, %58 ]
  %64 = tail call ptr @archive_strappend_char(ptr noundef nonnull %23, i8 noundef signext 32) #14
  %65 = add nuw i32 %.386105, 1
  %exitcond127.not = icmp eq i32 %.386105, %smax
  br i1 %exitcond127.not, label %._crit_edge108, label %.lr.ph107, !llvm.loop !173

._crit_edge108:                                   ; preds = %.lr.ph107, %58
  %66 = getelementptr inbounds nuw i8, ptr %spec.select, i64 1
  br label %.backedge

.preheader:                                       ; preds = %.preheader97
  br i1 %22, label %.lr.ph118, label %._crit_edge119

.lr.ph118:                                        ; preds = %.preheader
  %67 = getelementptr inbounds nuw i8, ptr %0, i64 88
  br label %68

68:                                               ; preds = %.lr.ph118, %68
  %.4117 = phi i32 [ 0, %.lr.ph118 ], [ %70, %68 ]
  %69 = tail call ptr @archive_strappend_char(ptr noundef nonnull %67, i8 noundef signext 32) #14
  %70 = add nuw nsw i32 %.4117, 1
  %exitcond128.not = icmp eq i32 %70, %21
  br i1 %exitcond128.not, label %._crit_edge119, label %68, !llvm.loop !174

._crit_edge119:                                   ; preds = %68, %.preheader
  %71 = getelementptr inbounds nuw i8, ptr %0, i64 88
  %72 = tail call ptr @archive_strcat(ptr noundef nonnull %71, ptr noundef %15) #14
  %73 = tail call i64 @strlen(ptr noundef nonnull dereferenceable(1) %15) #16
  %74 = getelementptr inbounds nuw i8, ptr %15, i64 %73
  br label %._crit_edge114

._crit_edge114:                                   ; preds = %.backedge, %._crit_edge119
  %.0.lcssa134 = phi ptr [ null, %._crit_edge119 ], [ %.0.be, %.backedge ]
  %.276 = phi ptr [ %74, %._crit_edge119 ], [ %.074.be, %.backedge ]
  %.not93 = icmp eq ptr %.0.lcssa134, null
  br i1 %.not93, label %92, label %75

75:                                               ; preds = %._crit_edge114
  %76 = sext i32 %.080 to i64
  %77 = tail call i64 @strlen(ptr noundef nonnull dereferenceable(1) %.276) #16
  %78 = add i64 %77, %76
  %79 = icmp ugt i64 %78, 62
  br i1 %79, label %80, label %92

80:                                               ; preds = %75
  %81 = getelementptr inbounds nuw i8, ptr %0, i64 88
  %82 = ptrtoint ptr %.0.lcssa134 to i64
  %83 = ptrtoint ptr %.276 to i64
  %84 = sub i64 %82, %83
  %85 = tail call ptr @archive_strncat(ptr noundef nonnull %81, ptr noundef nonnull %.276, i64 noundef %84) #14
  %86 = tail call ptr @archive_strncat(ptr noundef nonnull %81, ptr noundef nonnull @.str.76, i64 noundef 3) #14
  %87 = icmp sgt i32 %.080, -16
  br i1 %87, label %.lr.ph122.preheader, label %._crit_edge123

.lr.ph122.preheader:                              ; preds = %80
  %88 = add i32 %.080, 15
  %smax129 = tail call i32 @llvm.smax.i32(i32 %88, i32 0)
  br label %.lr.ph122

.lr.ph122:                                        ; preds = %.lr.ph122.preheader, %.lr.ph122
  %.5120 = phi i32 [ %90, %.lr.ph122 ], [ 0, %.lr.ph122.preheader ]
  %89 = tail call ptr @archive_strappend_char(ptr noundef nonnull %81, i8 noundef signext 32) #14
  %90 = add nuw i32 %.5120, 1
  %exitcond130.not = icmp eq i32 %.5120, %smax129
  br i1 %exitcond130.not, label %._crit_edge123, label %.lr.ph122, !llvm.loop !175

._crit_edge123:                                   ; preds = %.lr.ph122, %80
  %91 = getelementptr inbounds nuw i8, ptr %.0.lcssa134, i64 1
  br label %92

92:                                               ; preds = %._crit_edge123, %75, %._crit_edge114
  %.3 = phi ptr [ %91, %._crit_edge123 ], [ %.276, %75 ], [ %.276, %._crit_edge114 ]
  %93 = getelementptr inbounds nuw i8, ptr %0, i64 88
  %94 = tail call ptr @archive_strcat(ptr noundef nonnull %93, ptr noundef %.3) #14
  %95 = getelementptr inbounds nuw i8, ptr %0, i64 72
  store i64 0, ptr %95, align 8, !tbaa !151
  ret void
}